; Function Attrs: nounwind uwtable
define range(i32 -1, 1) i32 @H5VLclose_lib_context(ptr noundef %0) local_unnamed_addr #0 {
  %2 = icmp eq ptr %0, null
  br i1 %2, label %3, label %7, !prof !16

3:                                                ; preds = %1
  %4 = load i64, ptr @H5E_VOL_g, align 8, !tbaa !11
  %5 = load i64, ptr @H5E_BADVALUE_g, align 8, !tbaa !11
  %6 = tail call i32 (ptr, ptr, i32, i64, i64, ptr, ...) @H5E_printf_stack(ptr noundef nonnull @.str, ptr noundef nonnull @__func__.H5VLclose_lib_context, i32 noundef 834, i64 noundef %4, i64 noundef %5, ptr noundef nonnull @.str.41) #4
  br label %14

7:                                                ; preds = %1
  %8 = tail call i32 @H5VL_finish_lib_state(ptr noundef nonnull %0) #4
  %9 = icmp slt i32 %8, 0
  br i1 %9, label %10, label %16, !prof !16

10:                                               ; preds = %7
  %11 = load i64, ptr @H5E_VOL_g, align 8, !tbaa !11
  %12 = load i64, ptr @H5E_CANTRESET_g, align 8, !tbaa !11
  %13 = tail call i32 (ptr, ptr, i32, i64, i64, ptr, ...) @H5E_printf_stack(ptr noundef nonnull @.str, ptr noundef nonnull @__func__.H5VLclose_lib_context, i32 noundef 838, i64 noundef %11, i64 noundef %12, ptr noundef nonnull @.str.44) #4
  br label %14

14:                                               ; preds = %3, %10
  %15 = tail call i32 @H5E_dump_api_stack() #4
  br label %16

16:                                               ; preds = %7, %14
  %.059 = phi i32 [ -1, %14 ], [ 0, %7 ]
  ret i32 %.059
}